; Function Attrs: mustprogress nounwind uwtable
define hidden noundef zeroext i1 @_ZNK13IdealLoopTree18policy_unswitchingEP14PhaseIdealLoop(ptr noundef nonnull align 8 dereferenceable(113) %0, ptr nocapture noundef %1) local_unnamed_addr #0 align 2 {
  %3 = load i8, ptr @LoopUnswitching, align 1
  %4 = trunc i8 %3 to i1
  br i1 %4, label %5, label %_ZN14PhaseIdealLoop17may_require_nodesEjj.exit

5:                                                ; preds = %2
  %6 = getelementptr inbounds i8, ptr %0, i64 24
  %7 = load ptr, ptr %6, align 8
  %8 = getelementptr inbounds i8, ptr %7, i64 44
  %9 = load i32, ptr %8, align 4
  %10 = and i32 %9, 127
  %11 = icmp eq i32 %10, 96
  br i1 %11, label %12, label %_ZN14PhaseIdealLoop17may_require_nodesEjj.exit

12:                                               ; preds = %5
  %13 = and i32 %9, 992
  %14 = icmp eq i32 %13, 864
  br i1 %14, label %15, label %19

15:                                               ; preds = %12
  %16 = getelementptr inbounds i8, ptr %7, i64 60
  %17 = load i32, ptr %16, align 4
  %18 = and i32 %17, 512
  %.not6 = icmp eq i32 %18, 0
  br i1 %.not6, label %19, label %_ZN14PhaseIdealLoop17may_require_nodesEjj.exit

19:                                               ; preds = %15, %12
  %20 = getelementptr inbounds i8, ptr %7, i64 64
  %21 = load i8, ptr %20, align 8
  %.not = icmp slt i8 %21, 3
  br i1 %.not, label %22, label %_ZN14PhaseIdealLoop17may_require_nodesEjj.exit

22:                                               ; preds = %19
  %23 = tail call noundef ptr @_ZNK14PhaseIdealLoop23find_unswitch_candidateEPK13IdealLoopTree(ptr noundef nonnull align 8 dereferenceable(237) %1, ptr noundef nonnull %0)
  %24 = icmp eq ptr %23, null
  br i1 %24, label %_ZN14PhaseIdealLoop17may_require_nodesEjj.exit, label %25

25:                                               ; preds = %22
  %26 = tail call noundef i32 @_ZNK13IdealLoopTree17est_loop_clone_szEj(ptr noundef nonnull align 8 dereferenceable(113) %0, i32 noundef 2) #9
  %27 = getelementptr inbounds i8, ptr %1, i64 16
  %28 = load ptr, ptr %27, align 8
  %29 = getelementptr inbounds i8, ptr %28, i64 104
  %30 = load i64, ptr %29, align 8
  %31 = trunc i64 %30 to i32
  %32 = getelementptr inbounds i8, ptr %28, i64 592
  %33 = load i32, ptr %32, align 8
  %34 = getelementptr inbounds i8, ptr %28, i64 596
  %35 = load i32, ptr %34, align 4
  %.neg.i.i = sub i32 %31, %33
  %36 = add i32 %.neg.i.i, %35
  %37 = getelementptr inbounds i8, ptr %1, i64 232
  %38 = load i32, ptr %37, align 8
  %39 = add i32 %26, 70
  %40 = add i32 %39, %38
  %41 = icmp ult i32 %36, %40
  br i1 %41, label %_ZN14PhaseIdealLoop17may_require_nodesEjj.exit, label %42

42:                                               ; preds = %25
  %43 = tail call noundef i32 @llvm.umax.i32(i32 %26, i32 70)
  %44 = add i32 %38, %43
  store i32 %44, ptr %37, align 8
  %45 = icmp ne i32 %44, 0
  br label %_ZN14PhaseIdealLoop17may_require_nodesEjj.exit

_ZN14PhaseIdealLoop17may_require_nodesEjj.exit:   ; preds = %42, %25, %22, %19, %15, %5, %2
  %.0 = phi i1 [ false, %2 ], [ false, %5 ], [ false, %15 ], [ false, %19 ], [ false, %22 ], [ false, %25 ], [ %45, %42 ]
  ret i1 %.0
}